; ModuleID = '33/509.c'
source_filename = "33/509.c"
target datalayout = "e-m:e-p270:32:32-p271:32:32-p272:64:64-i64:64-f80:128-n8:16:32:64-S128"
target triple = "x86_64-pc-linux-gnu"

@.str = private unnamed_addr constant [3 x i8] c"%d\00", align 1
@.str.1 = private unnamed_addr constant [3 x i8] c"%s\00", align 1
@.str.2 = private unnamed_addr constant [4 x i8] c"%s\0A\00", align 1

; Function Attrs: noinline nounwind uwtable
define dso_local i32 @main() #0 {
  %1 = alloca i32, align 4
  %2 = alloca i32, align 4
  %3 = alloca i32, align 4
  %4 = alloca i8**, align 8
  %5 = alloca i32, align 4
  %6 = alloca i32*, align 8
  %7 = alloca i8**, align 8
  store i32 0, i32* %1, align 4
  %8 = call i32 (i8*, ...) @__isoc99_scanf(i8* getelementptr inbounds ([3 x i8], [3 x i8]* @.str, i64 0, i64 0), i32* %2)
  %9 = load i32, i32* %2, align 4
  %10 = sext i32 %9 to i64
  %11 = mul i64 8, %10
  %12 = call noalias i8* @malloc(i64 %11) #4
  %13 = bitcast i8* %12 to i8**
  store i8** %13, i8*** %4, align 8
  store i32 0, i32* %3, align 4
  br label %14

14:                                               ; preds = %24, %0
  %15 = load i32, i32* %3, align 4
  %16 = load i32, i32* %2, align 4
  %17 = icmp slt i32 %15, %16
  br i1 %17, label %18, label %27

18:                                               ; preds = %14
  %19 = call noalias i8* @malloc(i64 256) #4
  %20 = load i8**, i8*** %4, align 8
  %21 = load i32, i32* %3, align 4
  %22 = sext i32 %21 to i64
  %23 = getelementptr inbounds i8*, i8** %20, i64 %22
  store i8* %19, i8** %23, align 8
  br label %24

24:                                               ; preds = %18
  %25 = load i32, i32* %3, align 4
  %26 = add nsw i32 %25, 1
  store i32 %26, i32* %3, align 4
  br label %14

27:                                               ; preds = %14
  %28 = load i32, i32* %2, align 4
  %29 = sext i32 %28 to i64
  %30 = mul i64 4, %29
  %31 = call noalias i8* @malloc(i64 %30) #4
  %32 = bitcast i8* %31 to i32*
  store i32* %32, i32** %6, align 8
  store i32 0, i32* %3, align 4
  br label %33

33:                                               ; preds = %55, %27
  %34 = load i32, i32* %3, align 4
  %35 = load i32, i32* %2, align 4
  %36 = icmp slt i32 %34, %35
  br i1 %36, label %37, label %58

37:                                               ; preds = %33
  %38 = load i8**, i8*** %4, align 8
  %39 = load i32, i32* %3, align 4
  %40 = sext i32 %39 to i64
  %41 = getelementptr inbounds i8*, i8** %38, i64 %40
  %42 = load i8*, i8** %41, align 8
  %43 = call i32 (i8*, ...) @__isoc99_scanf(i8* getelementptr inbounds ([3 x i8], [3 x i8]* @.str.1, i64 0, i64 0), i8* %42)
  %44 = load i8**, i8*** %4, align 8
  %45 = load i32, i32* %3, align 4
  %46 = sext i32 %45 to i64
  %47 = getelementptr inbounds i8*, i8** %44, i64 %46
  %48 = load i8*, i8** %47, align 8
  %49 = call i64 @strlen(i8* %48) #5
  %50 = trunc i64 %49 to i32
  %51 = load i32*, i32** %6, align 8
  %52 = load i32, i32* %3, align 4
  %53 = sext i32 %52 to i64
  %54 = getelementptr inbounds i32, i32* %51, i64 %53
  store i32 %50, i32* %54, align 4
  br label %55

55:                                               ; preds = %37
  %56 = load i32, i32* %3, align 4
  %57 = add nsw i32 %56, 1
  store i32 %57, i32* %3, align 4
  br label %33

58:                                               ; preds = %33
  %59 = load i32, i32* %2, align 4
  %60 = sext i32 %59 to i64
  %61 = mul i64 8, %60
  %62 = call noalias i8* @malloc(i64 %61) #4
  %63 = bitcast i8* %62 to i8**
  store i8** %63, i8*** %7, align 8
  store i32 0, i32* %3, align 4
  br label %64

64:                                               ; preds = %82, %58
  %65 = load i32, i32* %3, align 4
  %66 = load i32, i32* %2, align 4
  %67 = icmp slt i32 %65, %66
  br i1 %67, label %68, label %85

68:                                               ; preds = %64
  %69 = load i32*, i32** %6, align 8
  %70 = load i32, i32* %3, align 4
  %71 = sext i32 %70 to i64
  %72 = getelementptr inbounds i32, i32* %69, i64 %71
  %73 = load i32, i32* %72, align 4
  %74 = sext i32 %73 to i64
  %75 = mul i64 1, %74
  %76 = add i64 %75, 1
  %77 = call noalias i8* @malloc(i64 %76) #4
  %78 = load i8**, i8*** %7, align 8
  %79 = load i32, i32* %3, align 4
  %80 = sext i32 %79 to i64
  %81 = getelementptr inbounds i8*, i8** %78, i64 %80
  store i8* %77, i8** %81, align 8
  br label %82

82:                                               ; preds = %68
  %83 = load i32, i32* %3, align 4
  %84 = add nsw i32 %83, 1
  store i32 %84, i32* %3, align 4
  br label %64

85:                                               ; preds = %64
  store i32 0, i32* %3, align 4
  br label %86

86:                                               ; preds = %191, %85
  %87 = load i32, i32* %3, align 4
  %88 = load i32, i32* %2, align 4
  %89 = icmp slt i32 %87, %88
  br i1 %89, label %90, label %194

90:                                               ; preds = %86
  store i32 0, i32* %5, align 4
  br label %91

91:                                               ; preds = %187, %90
  %92 = load i32, i32* %5, align 4
  %93 = load i32*, i32** %6, align 8
  %94 = load i32, i32* %3, align 4
  %95 = sext i32 %94 to i64
  %96 = getelementptr inbounds i32, i32* %93, i64 %95
  %97 = load i32, i32* %96, align 4
  %98 = icmp slt i32 %92, %97
  br i1 %98, label %99, label %190

99:                                               ; preds = %91
  %100 = load i8**, i8*** %4, align 8
  %101 = load i32, i32* %3, align 4
  %102 = sext i32 %101 to i64
  %103 = getelementptr inbounds i8*, i8** %100, i64 %102
  %104 = load i8*, i8** %103, align 8
  %105 = load i32, i32* %5, align 4
  %106 = sext i32 %105 to i64
  %107 = getelementptr inbounds i8, i8* %104, i64 %106
  %108 = load i8, i8* %107, align 1
  %109 = sext i8 %108 to i32
  %110 = icmp eq i32 %109, 65
  br i1 %110, label %111, label %120

111:                                              ; preds = %99
  %112 = load i8**, i8*** %7, align 8
  %113 = load i32, i32* %3, align 4
  %114 = sext i32 %113 to i64
  %115 = getelementptr inbounds i8*, i8** %112, i64 %114
  %116 = load i8*, i8** %115, align 8
  %117 = load i32, i32* %5, align 4
  %118 = sext i32 %117 to i64
  %119 = getelementptr inbounds i8, i8* %116, i64 %118
  store i8 84, i8* %119, align 1
  br label %186

120:                                              ; preds = %99
  %121 = load i8**, i8*** %4, align 8
  %122 = load i32, i32* %3, align 4
  %123 = sext i32 %122 to i64
  %124 = getelementptr inbounds i8*, i8** %121, i64 %123
  %125 = load i8*, i8** %124, align 8
  %126 = load i32, i32* %5, align 4
  %127 = sext i32 %126 to i64
  %128 = getelementptr inbounds i8, i8* %125, i64 %127
  %129 = load i8, i8* %128, align 1
  %130 = sext i8 %129 to i32
  %131 = icmp eq i32 %130, 84
  br i1 %131, label %132, label %141

132:                                              ; preds = %120
  %133 = load i8**, i8*** %7, align 8
  %134 = load i32, i32* %3, align 4
  %135 = sext i32 %134 to i64
  %136 = getelementptr inbounds i8*, i8** %133, i64 %135
  %137 = load i8*, i8** %136, align 8
  %138 = load i32, i32* %5, align 4
  %139 = sext i32 %138 to i64
  %140 = getelementptr inbounds i8, i8* %137, i64 %139
  store i8 65, i8* %140, align 1
  br label %185

141:                                              ; preds = %120
  %142 = load i8**, i8*** %4, align 8
  %143 = load i32, i32* %3, align 4
  %144 = sext i32 %143 to i64
  %145 = getelementptr inbounds i8*, i8** %142, i64 %144
  %146 = load i8*, i8** %145, align 8
  %147 = load i32, i32* %5, align 4
  %148 = sext i32 %147 to i64
  %149 = getelementptr inbounds i8, i8* %146, i64 %148
  %150 = load i8, i8* %149, align 1
  %151 = sext i8 %150 to i32
  %152 = icmp eq i32 %151, 67
  br i1 %152, label %153, label %162

153:                                              ; preds = %141
  %154 = load i8**, i8*** %7, align 8
  %155 = load i32, i32* %3, align 4
  %156 = sext i32 %155 to i64
  %157 = getelementptr inbounds i8*, i8** %154, i64 %156
  %158 = load i8*, i8** %157, align 8
  %159 = load i32, i32* %5, align 4
  %160 = sext i32 %159 to i64
  %161 = getelementptr inbounds i8, i8* %158, i64 %160
  store i8 71, i8* %161, align 1
  br label %184

162:                                              ; preds = %141
  %163 = load i8**, i8*** %4, align 8
  %164 = load i32, i32* %3, align 4
  %165 = sext i32 %164 to i64
  %166 = getelementptr inbounds i8*, i8** %163, i64 %165
  %167 = load i8*, i8** %166, align 8
  %168 = load i32, i32* %5, align 4
  %169 = sext i32 %168 to i64
  %170 = getelementptr inbounds i8, i8* %167, i64 %169
  %171 = load i8, i8* %170, align 1
  %172 = sext i8 %171 to i32
  %173 = icmp eq i32 %172, 71
  br i1 %173, label %174, label %183

174:                                              ; preds = %162
  %175 = load i8**, i8*** %7, align 8
  %176 = load i32, i32* %3, align 4
  %177 = sext i32 %176 to i64
  %178 = getelementptr inbounds i8*, i8** %175, i64 %177
  %179 = load i8*, i8** %178, align 8
  %180 = load i32, i32* %5, align 4
  %181 = sext i32 %180 to i64
  %182 = getelementptr inbounds i8, i8* %179, i64 %181
  store i8 67, i8* %182, align 1
  br label %183

183:                                              ; preds = %174, %162
  br label %184

184:                                              ; preds = %183, %153
  br label %185

185:                                              ; preds = %184, %132
  br label %186

186:                                              ; preds = %185, %111
  br label %187

187:                                              ; preds = %186
  %188 = load i32, i32* %5, align 4
  %189 = add nsw i32 %188, 1
  store i32 %189, i32* %5, align 4
  br label %91

190:                                              ; preds = %91
  br label %191

191:                                              ; preds = %190
  %192 = load i32, i32* %3, align 4
  %193 = add nsw i32 %192, 1
  store i32 %193, i32* %3, align 4
  br label %86

194:                                              ; preds = %86
  store i32 0, i32* %3, align 4
  br label %195

195:                                              ; preds = %206, %194
  %196 = load i32, i32* %3, align 4
  %197 = load i32, i32* %2, align 4
  %198 = icmp slt i32 %196, %197
  br i1 %198, label %199, label %209

199:                                              ; preds = %195
  %200 = load i8**, i8*** %7, align 8
  %201 = load i32, i32* %3, align 4
  %202 = sext i32 %201 to i64
  %203 = getelementptr inbounds i8*, i8** %200, i64 %202
  %204 = load i8*, i8** %203, align 8
  %205 = call i32 (i8*, ...) @printf(i8* getelementptr inbounds ([4 x i8], [4 x i8]* @.str.2, i64 0, i64 0), i8* %204)
  br label %206

206:                                              ; preds = %199
  %207 = load i32, i32* %3, align 4
  %208 = add nsw i32 %207, 1
  store i32 %208, i32* %3, align 4
  br label %195

209:                                              ; preds = %195
  %210 = load i8**, i8*** %7, align 8
  %211 = bitcast i8** %210 to i8*
  call void @free(i8* %211) #4
  %212 = load i8**, i8*** %4, align 8
  %213 = bitcast i8** %212 to i8*
  call void @free(i8* %213) #4
  %214 = load i32*, i32** %6, align 8
  %215 = bitcast i32* %214 to i8*
  call void @free(i8* %215) #4
  ret i32 0
}

declare dso_local i32 @__isoc99_scanf(i8*, ...) #1

; Function Attrs: nounwind
declare dso_local noalias i8* @malloc(i64) #2

; Function Attrs: nounwind readonly
declare dso_local i64 @strlen(i8*) #3

declare dso_local i32 @printf(i8*, ...) #1

; Function Attrs: nounwind
declare dso_local void @free(i8*) #2


!llvm.module.flags = !{!0}
!llvm.ident = !{!1}

!0 = !{i32 1, !"wchar_size", i32 4}
!1 = !{!"clang version 10.0.0-4ubuntu1 "}
